target datalayout = "e-m:e-p270:32:32-p271:32:32-p272:64:64-i64:64-i128:128-f80:128-n8:16:32:64-S128"
target triple = "x86_64-pc-linux-gnu"

%struct.wtap = type { ptr, ptr, i8, i32, i32, ptr, ptr, ptr, i32, ptr, ptr, ptr, ptr, ptr, ptr, ptr, ptr, ptr, ptr, i32, i32, ptr, ptr, ptr, ptr }
%struct.msg_t = type { %struct.nstime_t, i32, i8, i8, %struct.msg_data_t }
%struct.nstime_t = type { i64, i32 }
%struct.msg_data_t = type { i8, [64 x i8] }

; Function Attrs: null_pointer_is_valid sspstrong uwtable
define internal zeroext i1 @candump_seek_read(ptr noundef %0, i64 noundef %1, ptr noundef %2, ptr noundef %3, ptr noundef %4) #0 {
  %6 = alloca i1, align 1
  %7 = alloca ptr, align 8
  %8 = alloca i64, align 8
  %9 = alloca ptr, align 8
  %10 = alloca ptr, align 8
  %11 = alloca ptr, align 8
  %12 = alloca %struct.msg_t, align 8
  %13 = alloca i32, align 4
  store ptr %0, ptr %7, align 8
  store i64 %1, ptr %8, align 8
  store ptr %2, ptr %9, align 8
  store ptr %3, ptr %10, align 8
  store ptr %4, ptr %11, align 8
  call void @llvm.lifetime.start.p0(i64 88, ptr %12) #12
  %14 = load ptr, ptr %7, align 8
  %15 = getelementptr inbounds nuw %struct.wtap, ptr %14, i32 0, i32 1
  %16 = load ptr, ptr %15, align 8
  %17 = load i64, ptr %8, align 8
  %18 = load ptr, ptr %10, align 8
  %19 = call i64 @file_seek(ptr noundef %16, i64 noundef %17, i32 noundef 0, ptr noundef %18)
  %20 = icmp eq i64 %19, -1
  br i1 %20, label %21, label %30

21:                                               ; preds = %5
  %22 = call ptr @__errno_location() #11
  %23 = load i32, ptr %22, align 4
  %24 = load ptr, ptr %10, align 8
  store i32 %23, ptr %24, align 4
  %25 = call ptr @__errno_location() #11
  %26 = load i32, ptr %25, align 4
  %27 = call ptr @g_strerror(i32 noundef %26) #11
  %28 = call noalias ptr @g_strdup(ptr noundef %27)
  %29 = load ptr, ptr %11, align 8
  store ptr %28, ptr %29, align 8
  store i1 false, ptr %6, align 1
  store i32 1, ptr %13, align 4
  br label %43

30:                                               ; preds = %5
  %31 = load ptr, ptr %7, align 8
  %32 = getelementptr inbounds nuw %struct.wtap, ptr %31, i32 0, i32 1
  %33 = load ptr, ptr %32, align 8
  %34 = load ptr, ptr %10, align 8
  %35 = load ptr, ptr %11, align 8
  %36 = call zeroext i1 @candump_parse(ptr noundef %33, ptr noundef %12, ptr noundef null, ptr noundef %34, ptr noundef %35)
  br i1 %36, label %38, label %37

37:                                               ; preds = %30
  store i1 false, ptr %6, align 1
  store i32 1, ptr %13, align 4
  br label %43

38:                                               ; preds = %30
  %39 = load ptr, ptr %9, align 8
  %40 = load ptr, ptr %10, align 8
  %41 = load ptr, ptr %11, align 8
  %42 = call zeroext i1 @candump_gen_packet(ptr noundef %39, ptr noundef %12, ptr noundef %40, ptr noundef %41)
  store i1 %42, ptr %6, align 1
  store i32 1, ptr %13, align 4
  br label %43

43:                                               ; preds = %38, %37, %21
  call void @llvm.lifetime.end.p0(i64 88, ptr %12) #12
  %44 = load i1, ptr %6, align 1
  ret i1 %44
}