; Function Attrs: null_pointer_is_valid sspstrong uwtable
define internal noundef zeroext i1 @candump_seek_read(ptr noundef readonly captures(none) %0, i64 noundef %1, ptr noundef %2, ptr noundef %3, ptr noundef %4) #0 {
  %6 = alloca %struct.msg_t, align 8
  call void @llvm.lifetime.start.p0(i64 88, ptr nonnull %6) #8
  %7 = getelementptr inbounds nuw i8, ptr %0, i64 8
  %8 = load ptr, ptr %7, align 8
  %9 = tail call i64 @file_seek(ptr noundef %8, i64 noundef %1, i32 noundef 0, ptr noundef %3)
  %10 = icmp eq i64 %9, -1
  br i1 %10, label %11, label %16

11:                                               ; preds = %5
  %12 = tail call ptr @__errno_location() #7
  %13 = load i32, ptr %12, align 4
  store i32 %13, ptr %3, align 4
  %14 = tail call ptr @g_strerror(i32 noundef %13) #7
  %15 = tail call noalias ptr @g_strdup(ptr noundef %14)
  store ptr %15, ptr %4, align 8
  br label %21

16:                                               ; preds = %5
  %17 = load ptr, ptr %7, align 8
  %18 = call fastcc zeroext i1 @candump_parse(ptr noundef %17, ptr noundef nonnull %6, ptr noundef null, ptr noundef %3, ptr noundef %4)
  br i1 %18, label %19, label %21

19:                                               ; preds = %16
  %20 = call fastcc zeroext i1 @candump_gen_packet(ptr noundef %2, ptr noundef nonnull %6, ptr noundef %3, ptr noundef %4)
  br label %21

21:                                               ; preds = %16, %19, %11
  %.0 = phi i1 [ false, %11 ], [ %20, %19 ], [ false, %16 ]
  call void @llvm.lifetime.end.p0(i64 88, ptr nonnull %6) #8
  ret i1 %.0
}